; Function Attrs: mustprogress uwtable
define hidden void @_ZN11state_graph9mark_liveEj(ptr noundef nonnull align 8 dereferenceable(152) %0, i32 noundef %1) local_unnamed_addr #3 align 2 {
  %3 = getelementptr inbounds nuw i8, ptr %0, i64 24
  %4 = lshr i32 %1, 5
  %5 = load ptr, ptr %3, align 8, !tbaa !3
  %6 = icmp eq ptr %5, null
  br i1 %6, label %_ZNK8uint_set8containsEj.exit.thread, label %_ZNK6vectorIjLb0EjE4sizeEv.exit.i

_ZNK6vectorIjLb0EjE4sizeEv.exit.i:                ; preds = %2
  %7 = getelementptr inbounds i8, ptr %5, i64 -4
  %8 = load i32, ptr %7, align 4, !tbaa !9
  %9 = icmp ult i32 %4, %8
  br i1 %9, label %_ZNK8uint_set8containsEj.exit, label %_ZNK8uint_set8containsEj.exit.thread

_ZNK8uint_set8containsEj.exit:                    ; preds = %_ZNK6vectorIjLb0EjE4sizeEv.exit.i
  %10 = zext nneg i32 %4 to i64
  %11 = getelementptr inbounds nuw i32, ptr %5, i64 %10
  %12 = load i32, ptr %11, align 4, !tbaa !9
  %13 = and i32 %1, 31
  %14 = shl nuw i32 1, %13
  %15 = and i32 %12, %14
  %.not = icmp eq i32 %15, 0
  br i1 %.not, label %_ZNK8uint_set8containsEj.exit.thread, label %_ZN8uint_set6removeEj.exit.i

_ZN8uint_set6removeEj.exit.i:                     ; preds = %_ZNK8uint_set8containsEj.exit
  %16 = xor i32 %14, -1
  %17 = and i32 %12, %16
  store i32 %17, ptr %11, align 4, !tbaa !9
  %18 = getelementptr inbounds nuw i8, ptr %0, i64 16
  %19 = load ptr, ptr %18, align 8, !tbaa !3
  %20 = icmp eq ptr %19, null
  br i1 %20, label %thread-pre-split.i.i.i.preheader, label %_ZNK6vectorIjLb0EjE4sizeEv.exit.i2.i

_ZNK6vectorIjLb0EjE4sizeEv.exit.i2.i:             ; preds = %_ZN8uint_set6removeEj.exit.i
  %21 = getelementptr inbounds i8, ptr %19, i64 -4
  %22 = load i32, ptr %21, align 4, !tbaa !9
  %.not.i.i = icmp ult i32 %4, %22
  br i1 %.not.i.i, label %_ZN11state_graph17mark_unknown_coreEj.exit, label %thread-pre-split.i.i.i.preheader

thread-pre-split.i.i.i.preheader:                 ; preds = %_ZNK6vectorIjLb0EjE4sizeEv.exit.i2.i, %_ZN8uint_set6removeEj.exit.i
  %.ph = phi ptr [ null, %_ZN8uint_set6removeEj.exit.i ], [ %19, %_ZNK6vectorIjLb0EjE4sizeEv.exit.i2.i ]
  %.0.i16.i.i.i.ph = phi i32 [ 0, %_ZN8uint_set6removeEj.exit.i ], [ %22, %_ZNK6vectorIjLb0EjE4sizeEv.exit.i2.i ]
  %.ph3 = add nuw nsw i32 %4, 1
  br label %thread-pre-split.i.i.i

thread-pre-split.i.i.i:                           ; preds = %thread-pre-split.i.i.i.preheader, %_ZNK6vectorIjLb0EjE8capacityEv.exit.thread.i.i.i
  %23 = phi ptr [ %.pr.pre.i.i.i, %_ZNK6vectorIjLb0EjE8capacityEv.exit.thread.i.i.i ], [ %.ph, %thread-pre-split.i.i.i.preheader ]
  %24 = icmp eq ptr %23, null
  br i1 %24, label %_ZNK6vectorIjLb0EjE8capacityEv.exit.thread.i.i.i, label %_ZNK6vectorIjLb0EjE8capacityEv.exit.i.i.i

_ZNK6vectorIjLb0EjE8capacityEv.exit.i.i.i:        ; preds = %thread-pre-split.i.i.i
  %25 = getelementptr inbounds i8, ptr %23, i64 -8
  %26 = load i32, ptr %25, align 4, !tbaa !9
  %.not4 = icmp ult i32 %4, %26
  br i1 %.not4, label %27, label %_ZNK6vectorIjLb0EjE8capacityEv.exit.thread.i.i.i

_ZNK6vectorIjLb0EjE8capacityEv.exit.thread.i.i.i: ; preds = %_ZNK6vectorIjLb0EjE8capacityEv.exit.i.i.i, %thread-pre-split.i.i.i
  tail call void @_ZN6vectorIjLb0EjE13expand_vectorEv(ptr noundef nonnull align 8 dereferenceable(8) %18)
  %.pr.pre.i.i.i = load ptr, ptr %18, align 8, !tbaa !3
  br label %thread-pre-split.i.i.i, !llvm.loop !13

27:                                               ; preds = %_ZNK6vectorIjLb0EjE8capacityEv.exit.i.i.i
  %28 = getelementptr inbounds i8, ptr %23, i64 -4
  store i32 %.ph3, ptr %28, align 4, !tbaa !9
  %.not1218.i.i.i = icmp eq i32 %.0.i16.i.i.i.ph, %.ph3
  br i1 %.not1218.i.i.i, label %_ZN11state_graph17mark_unknown_coreEj.exit, label %.lr.ph.preheader.i.i.i

.lr.ph.preheader.i.i.i:                           ; preds = %27
  %29 = zext nneg i32 %.ph3 to i64
  %30 = zext i32 %.0.i16.i.i.i.ph to i64
  %31 = getelementptr i32, ptr %23, i64 %30
  %32 = sub nsw i64 %29, %30
  %33 = shl nsw i64 %32, 2
  tail call void @llvm.memset.p0.i64(ptr align 4 %31, i8 0, i64 %33, i1 false), !tbaa !9
  br label %_ZN11state_graph17mark_unknown_coreEj.exit

_ZN11state_graph17mark_unknown_coreEj.exit:       ; preds = %_ZNK6vectorIjLb0EjE4sizeEv.exit.i2.i, %27, %.lr.ph.preheader.i.i.i
  %34 = phi ptr [ %23, %.lr.ph.preheader.i.i.i ], [ %23, %27 ], [ %19, %_ZNK6vectorIjLb0EjE4sizeEv.exit.i2.i ]
  %35 = getelementptr inbounds nuw i32, ptr %34, i64 %10
  %36 = load i32, ptr %35, align 4, !tbaa !9
  %37 = or i32 %36, %14
  store i32 %37, ptr %35, align 4, !tbaa !9
  br label %_ZNK8uint_set8containsEj.exit.thread

_ZNK8uint_set8containsEj.exit.thread:             ; preds = %2, %_ZNK6vectorIjLb0EjE4sizeEv.exit.i, %_ZN11state_graph17mark_unknown_coreEj.exit, %_ZNK8uint_set8containsEj.exit
  tail call void @_ZN11state_graph19mark_live_recursiveEj(ptr noundef nonnull align 8 dereferenceable(152) %0, i32 noundef %1)
  ret void
}